; ModuleID = 'source-C-CXX/57/254.c'
source_filename = "source-C-CXX/57/254.c"
target datalayout = "e-m:e-p270:32:32-p271:32:32-p272:64:64-i64:64-f80:128-n8:16:32:64-S128"
target triple = "x86_64-pc-linux-gnu"

%struct._IO_FILE = type { i32, i8*, i8*, i8*, i8*, i8*, i8*, i8*, i8*, i8*, i8*, i8*, %struct._IO_marker*, %struct._IO_FILE*, i32, i32, i64, i16, i8, [1 x i8], i8*, i64, %struct._IO_codecvt*, %struct._IO_wide_data*, %struct._IO_FILE*, i8*, i64, i32, [20 x i8] }
%struct._IO_marker = type opaque
%struct._IO_codecvt = type opaque
%struct._IO_wide_data = type opaque

@.str = private unnamed_addr constant [3 x i8] c"%d\00", align 1
@stdin = external local_unnamed_addr global %struct._IO_FILE*, align 8
@str = private unnamed_addr constant [2 x i8] c"1\00", align 1
@str.4 = private unnamed_addr constant [2 x i8] c"0\00", align 1

; Function Attrs: nounwind sspstrong uwtable
define dso_local i32 @main() local_unnamed_addr #0 {
  %1 = alloca i32, align 4
  %2 = alloca [1000 x [100 x i8]], align 16
  %3 = bitcast i32* %1 to i8*
  call void @llvm.lifetime.start.p0i8(i64 4, i8* nonnull %3) #6
  %4 = getelementptr inbounds [1000 x [100 x i8]], [1000 x [100 x i8]]* %2, i64 0, i64 0, i64 0
  call void @llvm.lifetime.start.p0i8(i64 100000, i8* nonnull %4) #6
  %5 = call i32 (i8*, ...) @__isoc99_scanf(i8* getelementptr inbounds ([3 x i8], [3 x i8]* @.str, i64 0, i64 0), i32* nonnull %1)
  %6 = load i32, i32* %1, align 4, !tbaa !5
  %7 = icmp slt i32 %6, 0
  br i1 %7, label %55, label %10

8:                                                ; preds = %10
  %9 = icmp slt i32 %15, 1
  br i1 %9, label %55, label %18

10:                                               ; preds = %0, %10
  %11 = phi i64 [ %14, %10 ], [ 0, %0 ]
  %12 = getelementptr inbounds [1000 x [100 x i8]], [1000 x [100 x i8]]* %2, i64 0, i64 %11, i64 0
  %13 = call i32 (i8*, ...) bitcast (i32 (...)* @gets to i32 (i8*, ...)*)(i8* nonnull %12) #6
  %14 = add nuw nsw i64 %11, 1
  %15 = load i32, i32* %1, align 4, !tbaa !5
  %16 = sext i32 %15 to i64
  %17 = icmp slt i64 %11, %16
  br i1 %17, label %10, label %8, !llvm.loop !9

18:                                               ; preds = %8, %48
  %19 = phi i64 [ %51, %48 ], [ 1, %8 ]
  %20 = getelementptr inbounds [1000 x [100 x i8]], [1000 x [100 x i8]]* %2, i64 0, i64 %19, i64 0
  %21 = call i64 @strlen(i8* noundef nonnull %20) #7
  %22 = load i8, i8* %20, align 4, !tbaa !11
  %23 = add i8 %22, -48
  %24 = icmp ult i8 %23, 10
  br i1 %24, label %48, label %25

25:                                               ; preds = %18
  %26 = trunc i64 %21 to i32
  %27 = icmp sgt i32 %26, 0
  br i1 %27, label %28, label %48

28:                                               ; preds = %25
  %29 = shl i64 %21, 32
  %30 = ashr exact i64 %29, 32
  br label %31

31:                                               ; preds = %45, %28
  %32 = phi i8 [ %22, %28 ], [ %47, %45 ]
  %33 = phi i64 [ 0, %28 ], [ %43, %45 ]
  %34 = and i8 %32, -33
  %35 = add i8 %34, -65
  %36 = icmp ult i8 %35, 26
  br i1 %36, label %42, label %37

37:                                               ; preds = %31
  %38 = add i8 %32, -48
  %39 = icmp ult i8 %38, 10
  %40 = icmp eq i8 %32, 95
  %41 = or i1 %40, %39
  br i1 %41, label %42, label %48

42:                                               ; preds = %37, %31
  %43 = add nuw nsw i64 %33, 1
  %44 = icmp eq i64 %43, %30
  br i1 %44, label %48, label %45, !llvm.loop !12

45:                                               ; preds = %42
  %46 = getelementptr inbounds [1000 x [100 x i8]], [1000 x [100 x i8]]* %2, i64 0, i64 %19, i64 %43
  %47 = load i8, i8* %46, align 1, !tbaa !11
  br label %31

48:                                               ; preds = %42, %37, %25, %18
  %49 = phi i8* [ getelementptr inbounds ([2 x i8], [2 x i8]* @str.4, i64 0, i64 0), %18 ], [ getelementptr inbounds ([2 x i8], [2 x i8]* @str, i64 0, i64 0), %25 ], [ getelementptr inbounds ([2 x i8], [2 x i8]* @str.4, i64 0, i64 0), %37 ], [ getelementptr inbounds ([2 x i8], [2 x i8]* @str, i64 0, i64 0), %42 ]
  %50 = call i32 @puts(i8* nonnull dereferenceable(1) %49)
  %51 = add nuw nsw i64 %19, 1
  %52 = load i32, i32* %1, align 4, !tbaa !5
  %53 = sext i32 %52 to i64
  %54 = icmp slt i64 %19, %53
  br i1 %54, label %18, label %55, !llvm.loop !13

55:                                               ; preds = %48, %0, %8
  %56 = load %struct._IO_FILE*, %struct._IO_FILE** @stdin, align 8, !tbaa !14
  %57 = call i32 @getc(%struct._IO_FILE* %56) #6
  %58 = load %struct._IO_FILE*, %struct._IO_FILE** @stdin, align 8, !tbaa !14
  %59 = call i32 @getc(%struct._IO_FILE* %58) #6
  call void @llvm.lifetime.end.p0i8(i64 100000, i8* nonnull %4) #6
  call void @llvm.lifetime.end.p0i8(i64 4, i8* nonnull %3) #6
  ret i32 0
}

; Function Attrs: argmemonly mustprogress nofree nosync nounwind willreturn
declare void @llvm.lifetime.start.p0i8(i64 immarg, i8* nocapture) #1

; Function Attrs: nofree nounwind
declare noundef i32 @__isoc99_scanf(i8* nocapture noundef readonly, ...) local_unnamed_addr #2

declare i32 @gets(...) local_unnamed_addr #3

; Function Attrs: argmemonly mustprogress nofree nounwind readonly willreturn
declare i64 @strlen(i8* nocapture) local_unnamed_addr #4

; Function Attrs: argmemonly mustprogress nofree nosync nounwind willreturn
declare void @llvm.lifetime.end.p0i8(i64 immarg, i8* nocapture) #1

; Function Attrs: nofree nounwind
declare noundef i32 @getc(%struct._IO_FILE* nocapture noundef) local_unnamed_addr #2

; Function Attrs: nofree nounwind
declare noundef i32 @puts(i8* nocapture noundef readonly) local_unnamed_addr #5


!llvm.module.flags = !{!0, !1, !2, !3}
!llvm.ident = !{!4}

!0 = !{i32 1, !"wchar_size", i32 4}
!1 = !{i32 7, !"PIC Level", i32 2}
!2 = !{i32 7, !"PIE Level", i32 2}
!3 = !{i32 7, !"uwtable", i32 1}
!4 = !{!"clang version 13.0.0"}
!5 = !{!6, !6, i64 0}
!6 = !{!"int", !7, i64 0}
!7 = !{!"omnipotent char", !8, i64 0}
!8 = !{!"Simple C/C++ TBAA"}
!9 = distinct !{!9, !10}
!10 = !{!"llvm.loop.mustprogress"}
!11 = !{!7, !7, i64 0}
!12 = distinct !{!12, !10}
!13 = distinct !{!13, !10}
!14 = !{!15, !15, i64 0}
!15 = !{!"any pointer", !7, i64 0}
